; Function Attrs: inlinehint nounwind uwtable
define internal fastcc zeroext i1 @lxb_html_tree_insertion_mode_in_body_noscript(ptr noundef %0, ptr noundef %1) unnamed_addr #3 {
  %3 = getelementptr inbounds nuw i8, ptr %0, i64 8
  %4 = load ptr, ptr %3, align 8, !tbaa !47
  %5 = getelementptr inbounds nuw i8, ptr %4, i64 250
  %6 = load i8, ptr %5, align 2, !tbaa !76, !range !26, !noundef !27
  %7 = icmp eq i8 %6, 0
  br i1 %7, label %8, label %15

8:                                                ; preds = %2
  %9 = tail call i32 @lxb_html_tree_active_formatting_reconstruct_elements(ptr noundef nonnull %0) #6
  %10 = getelementptr inbounds nuw i8, ptr %0, i64 112
  store i32 %9, ptr %10, align 8, !tbaa !22
  %.not.i = icmp eq i32 %9, 0
  br i1 %.not.i, label %11, label %lxb_html_tree_insertion_mode_in_body_anything_else.exit.sink.split

11:                                               ; preds = %8
  %12 = tail call ptr @lxb_html_tree_insert_foreign_element(ptr noundef nonnull %0, ptr noundef %1, i64 noundef 2) #6
  %13 = icmp eq ptr %12, null
  br i1 %13, label %14, label %lxb_html_tree_insertion_mode_in_body_anything_else.exit

14:                                               ; preds = %11
  store i32 2, ptr %10, align 8, !tbaa !22
  br label %lxb_html_tree_insertion_mode_in_body_anything_else.exit.sink.split

15:                                               ; preds = %2
  %16 = tail call ptr @lxb_html_tree_generic_rawtext_parsing(ptr noundef nonnull %0, ptr noundef %1) #6
  %17 = icmp eq ptr %16, null
  br i1 %17, label %18, label %lxb_html_tree_insertion_mode_in_body_anything_else.exit

18:                                               ; preds = %15
  %19 = getelementptr inbounds nuw i8, ptr %0, i64 112
  store i32 2, ptr %19, align 8, !tbaa !22
  br label %lxb_html_tree_insertion_mode_in_body_anything_else.exit.sink.split

lxb_html_tree_insertion_mode_in_body_anything_else.exit.sink.split: ; preds = %8, %14, %18
  %20 = tail call zeroext i1 @lxb_html_tree_process_abort(ptr noundef nonnull %0) #6
  br label %lxb_html_tree_insertion_mode_in_body_anything_else.exit

lxb_html_tree_insertion_mode_in_body_anything_else.exit: ; preds = %lxb_html_tree_insertion_mode_in_body_anything_else.exit.sink.split, %11, %15
  %.0 = phi i1 [ true, %15 ], [ true, %11 ], [ %20, %lxb_html_tree_insertion_mode_in_body_anything_else.exit.sink.split ]
  ret i1 %.0
}